; Function Attrs: mustprogress uwtable
define ptr @udatpg_getDateTimeFormat_77(ptr noundef nonnull %0, ptr noundef writeonly %1) local_unnamed_addr #0 {
  %3 = alloca i32, align 4
  call void @llvm.lifetime.start.p0(i64 4, ptr nonnull %3) #5
  store i32 0, ptr %3, align 4, !tbaa !6
  %4 = call noundef nonnull align 8 dereferenceable(64) ptr @_ZNK6icu_7724DateTimePatternGenerator17getDateTimeFormatE16UDateFormatStyleR10UErrorCode(ptr noundef nonnull align 8 dereferenceable(4796) %0, i32 noundef 2, ptr noundef nonnull align 4 dereferenceable(4) %3)
  %.not12.i = icmp eq ptr %1, null
  br i1 %.not12.i, label %14, label %5

5:                                                ; preds = %2
  %6 = getelementptr inbounds nuw i8, ptr %4, i64 8
  %7 = load i16, ptr %6, align 8, !tbaa !17
  %8 = icmp slt i16 %7, 0
  %9 = ashr i16 %7, 5
  %10 = sext i16 %9 to i32
  %11 = getelementptr inbounds nuw i8, ptr %4, i64 12
  %12 = load i32, ptr %11, align 4
  %13 = select i1 %8, i32 %12, i32 %10
  store i32 %13, ptr %1, align 4, !tbaa !18
  br label %14

14:                                               ; preds = %5, %2
  %15 = getelementptr inbounds nuw i8, ptr %4, i64 8
  %16 = load i16, ptr %15, align 8, !tbaa !17
  %17 = and i16 %16, 17
  %.not.i.i = icmp eq i16 %17, 0
  br i1 %.not.i.i, label %18, label %udatpg_getDateTimeFormatForStyle_77.exit

18:                                               ; preds = %14
  %19 = and i16 %16, 2
  %.not2.i.i = icmp eq i16 %19, 0
  br i1 %.not2.i.i, label %22, label %20

20:                                               ; preds = %18
  %21 = getelementptr inbounds nuw i8, ptr %4, i64 10
  br label %udatpg_getDateTimeFormatForStyle_77.exit

22:                                               ; preds = %18
  %23 = getelementptr inbounds nuw i8, ptr %4, i64 24
  %24 = load ptr, ptr %23, align 8, !tbaa !17
  br label %udatpg_getDateTimeFormatForStyle_77.exit

udatpg_getDateTimeFormatForStyle_77.exit:         ; preds = %14, %20, %22
  %.0.i = phi ptr [ %21, %20 ], [ %24, %22 ], [ null, %14 ]
  call void @llvm.lifetime.end.p0(i64 4, ptr nonnull %3) #5
  ret ptr %.0.i
}